target datalayout = "e-m:e-p270:32:32-p271:32:32-p272:64:64-i64:64-i128:128-f80:128-n8:16:32:64-S128"
target triple = "x86_64-pc-linux-gnu"

%struct.erf_state_t = type { ptr, ptr, i64 }
%struct._packet_info = type { ptr, ptr, i32, i32, %struct.nstime_t, %struct.nstime_t, %struct.nstime_t, i8, ptr, ptr, ptr, ptr, %struct._address, %struct._address, %struct._address, %struct._address, %struct._address, %struct._address, i32, ptr, i8, [3 x i8], %struct.anon, i32, i32, i32, i32, ptr, i8, ptr, ptr, i16, i16, i32, i32, i16, i32, i32, ptr, ptr, ptr, i8, i8, i16, i16, i16, i32, i16, i16, ptr, ptr, ptr, ptr, ptr, i32, i32 }
%struct.nstime_t = type { i64, i32 }
%struct._address = type { i32, i32, ptr, ptr }
%struct.anon = type { i8, [3 x i8] }
%struct._proto_node = type { ptr, ptr, ptr, ptr, ptr, ptr, ptr }
%struct.erf_source_info_t = type { ptr, ptr }
%struct.field_info = type { ptr, i32, i32, i32, i32, i32, i32, ptr, ptr, ptr, i32, i32 }

@hf_erf_sourceid = internal global i32 0, align 4
@hf_erf_hostid = internal global i32 0, align 4
@hf_erf_source_current = internal global i32 0, align 4
@hf_erf_source_next = internal global i32 0, align 4
@hf_erf_source_prev = internal global i32 0, align 4
@ett_erf_source = internal global i32 0, align 4
@erf_state = internal global %struct.erf_state_t zeroinitializer, align 8
@.str.418 = private unnamed_addr constant [33 x i8] c"Host ID: 0x%012lx, Source ID: %u\00", align 1

; Function Attrs: inlinehint nounwind null_pointer_is_valid sspstrong uwtable
define internal void @proto_item_set_generated(ptr noundef %0) #6 {
  %2 = alloca ptr, align 8
  store ptr %0, ptr %2, align 8
  %3 = load ptr, ptr %2, align 8
  %4 = icmp ne ptr %3, null
  br i1 %4, label %5, label %24

5:                                                ; preds = %1
  br label %6

6:                                                ; preds = %5
  %7 = load ptr, ptr %2, align 8
  %8 = getelementptr inbounds nuw %struct._proto_node, ptr %7, i32 0, i32 5
  %9 = load ptr, ptr %8, align 8
  %10 = icmp ne ptr %9, null
  br i1 %10, label %11, label %22

11:                                               ; preds = %6
  %12 = load ptr, ptr %2, align 8
  %13 = getelementptr inbounds nuw %struct._proto_node, ptr %12, i32 0, i32 5
  %14 = load ptr, ptr %13, align 8
  %15 = getelementptr inbounds nuw %struct.field_info, ptr %14, i32 0, i32 6
  %16 = load i32, ptr %15, align 4
  %17 = or i32 %16, 2
  %18 = load ptr, ptr %2, align 8
  %19 = getelementptr inbounds nuw %struct._proto_node, ptr %18, i32 0, i32 5
  %20 = load ptr, ptr %19, align 8
  %21 = getelementptr inbounds nuw %struct.field_info, ptr %20, i32 0, i32 6
  store i32 %17, ptr %21, align 4
  br label %22

22:                                               ; preds = %11, %6
  br label %23

23:                                               ; preds = %22
  br label %24

24:                                               ; preds = %23, %1
  ret void
}

; Function Attrs: null_pointer_is_valid sspstrong uwtable
define internal i32 @erf_source_find_closest(i64 noundef %0, i8 noundef zeroext %1, i32 noundef %2, ptr noundef %3) #2 {
  %5 = alloca i64, align 8
  %6 = alloca i8, align 1
  %7 = alloca i32, align 4
  %8 = alloca ptr, align 8
  %9 = alloca ptr, align 8
  %10 = alloca ptr, align 8
  %11 = alloca ptr, align 8
  %12 = alloca i64, align 8
  %13 = alloca i32, align 4
  %14 = alloca i32, align 4
  store i64 %0, ptr %5, align 8
  store i8 %1, ptr %6, align 1
  store i32 %2, ptr %7, align 4
  store ptr %3, ptr %8, align 8
  call void @llvm.lifetime.start.p0(i64 8, ptr %9) #14
  store ptr null, ptr %9, align 8
  call void @llvm.lifetime.start.p0(i64 8, ptr %10) #14
  store ptr null, ptr %10, align 8
  call void @llvm.lifetime.start.p0(i64 8, ptr %11) #14
  store ptr null, ptr %11, align 8
  call void @llvm.lifetime.start.p0(i64 8, ptr %12) #14
  %15 = load i64, ptr %5, align 8
  %16 = shl i64 %15, 16
  %17 = load i8, ptr %6, align 1
  %18 = zext i8 %17 to i64
  %19 = or i64 %16, %18
  store i64 %19, ptr %12, align 8
  call void @llvm.lifetime.start.p0(i64 4, ptr %13) #14
  store i32 -1, ptr %13, align 4
  call void @llvm.lifetime.start.p0(i64 4, ptr %14) #14
  store i32 -1, ptr %14, align 4
  %20 = load ptr, ptr @erf_state, align 8
  %21 = call ptr @wmem_map_lookup(ptr noundef %20, ptr noundef %12)
  store ptr %21, ptr %11, align 8
  %22 = load ptr, ptr %11, align 8
  %23 = icmp ne ptr %22, null
  br i1 %23, label %24, label %82

24:                                               ; preds = %4
  %25 = load ptr, ptr %11, align 8
  %26 = getelementptr inbounds nuw %struct.erf_source_info_t, ptr %25, i32 0, i32 0
  %27 = load ptr, ptr %26, align 8
  %28 = load i32, ptr %7, align 4
  %29 = call ptr @wmem_tree_lookup32_le(ptr noundef %27, i32 noundef %28)
  store ptr %29, ptr %9, align 8
  %30 = load ptr, ptr %9, align 8
  %31 = icmp ne ptr %30, null
  br i1 %31, label %32, label %66

32:                                               ; preds = %24
  %33 = load ptr, ptr %9, align 8
  %34 = call ptr @wmem_list_frame_data(ptr noundef %33)
  %35 = ptrtoint ptr %34 to i64
  %36 = trunc i64 %35 to i32
  store i32 %36, ptr %13, align 4
  %37 = load i32, ptr %13, align 4
  %38 = load i32, ptr %7, align 4
  %39 = icmp eq i32 %37, %38
  br i1 %39, label %40, label %53

40:                                               ; preds = %32
  %41 = load ptr, ptr %9, align 8
  %42 = call ptr @wmem_list_frame_prev(ptr noundef %41)
  store ptr %42, ptr %10, align 8
  %43 = load ptr, ptr %10, align 8
  %44 = icmp ne ptr %43, null
  br i1 %44, label %45, label %50

45:                                               ; preds = %40
  %46 = load ptr, ptr %10, align 8
  %47 = call ptr @wmem_list_frame_data(ptr noundef %46)
  %48 = ptrtoint ptr %47 to i64
  %49 = trunc i64 %48 to i32
  br label %51

50:                                               ; preds = %40
  br label %51

51:                                               ; preds = %50, %45
  %52 = phi i32 [ %49, %45 ], [ -1, %50 ]
  store i32 %52, ptr %13, align 4
  br label %53

53:                                               ; preds = %51, %32
  %54 = load ptr, ptr %9, align 8
  %55 = call ptr @wmem_list_frame_next(ptr noundef %54)
  store ptr %55, ptr %9, align 8
  %56 = load ptr, ptr %9, align 8
  %57 = icmp ne ptr %56, null
  br i1 %57, label %58, label %63

58:                                               ; preds = %53
  %59 = load ptr, ptr %9, align 8
  %60 = call ptr @wmem_list_frame_data(ptr noundef %59)
  %61 = ptrtoint ptr %60 to i64
  %62 = trunc i64 %61 to i32
  br label %64

63:                                               ; preds = %53
  br label %64

64:                                               ; preds = %63, %58
  %65 = phi i32 [ %62, %58 ], [ -1, %63 ]
  store i32 %65, ptr %14, align 4
  br label %81

66:                                               ; preds = %24
  %67 = load ptr, ptr %11, align 8
  %68 = getelementptr inbounds nuw %struct.erf_source_info_t, ptr %67, i32 0, i32 1
  %69 = load ptr, ptr %68, align 8
  %70 = call ptr @wmem_list_head(ptr noundef %69)
  store ptr %70, ptr %9, align 8
  %71 = load ptr, ptr %9, align 8
  %72 = icmp ne ptr %71, null
  br i1 %72, label %73, label %78

73:                                               ; preds = %66
  %74 = load ptr, ptr %9, align 8
  %75 = call ptr @wmem_list_frame_data(ptr noundef %74)
  %76 = ptrtoint ptr %75 to i64
  %77 = trunc i64 %76 to i32
  br label %79

78:                                               ; preds = %66
  br label %79

79:                                               ; preds = %78, %73
  %80 = phi i32 [ %77, %73 ], [ -1, %78 ]
  store i32 %80, ptr %14, align 4
  store i32 -1, ptr %13, align 4
  br label %81

81:                                               ; preds = %79, %64
  br label %82

82:                                               ; preds = %81, %4
  %83 = load ptr, ptr %8, align 8
  %84 = icmp ne ptr %83, null
  br i1 %84, label %85, label %88

85:                                               ; preds = %82
  %86 = load i32, ptr %14, align 4
  %87 = load ptr, ptr %8, align 8
  store i32 %86, ptr %87, align 4
  br label %88

88:                                               ; preds = %85, %82
  %89 = load i32, ptr %13, align 4
  call void @llvm.lifetime.end.p0(i64 4, ptr %14) #14
  call void @llvm.lifetime.end.p0(i64 4, ptr %13) #14
  call void @llvm.lifetime.end.p0(i64 8, ptr %12) #14
  call void @llvm.lifetime.end.p0(i64 8, ptr %11) #14
  call void @llvm.lifetime.end.p0(i64 8, ptr %10) #14
  call void @llvm.lifetime.end.p0(i64 8, ptr %9) #14
  ret i32 %89
}

; Function Attrs: null_pointer_is_valid sspstrong uwtable
define internal void @dissect_host_id_source_id(ptr noundef %0, ptr noundef %1, ptr noundef %2, i64 noundef %3, i8 noundef zeroext %4) #2 {
  %6 = alloca ptr, align 8
  %7 = alloca ptr, align 8
  %8 = alloca ptr, align 8
  %9 = alloca i64, align 8
  %10 = alloca i8, align 1
  %11 = alloca ptr, align 8
  %12 = alloca ptr, align 8
  %13 = alloca i32, align 4
  %14 = alloca i32, align 4
  %15 = alloca i32, align 4
  store ptr %0, ptr %6, align 8
  store ptr %1, ptr %7, align 8
  store ptr %2, ptr %8, align 8
  store i64 %3, ptr %9, align 8
  store i8 %4, ptr %10, align 1
  call void @llvm.lifetime.start.p0(i64 8, ptr %11) #14
  call void @llvm.lifetime.start.p0(i64 8, ptr %12) #14
  store ptr null, ptr %12, align 8
  call void @llvm.lifetime.start.p0(i64 4, ptr %13) #14
  store i32 -1, ptr %13, align 4
  call void @llvm.lifetime.start.p0(i64 4, ptr %14) #14
  store i32 -1, ptr %14, align 4
  call void @llvm.lifetime.start.p0(i64 4, ptr %15) #14
  store i32 -1, ptr %15, align 4
  %16 = load i64, ptr %9, align 8
  %17 = load i8, ptr %10, align 1
  %18 = load ptr, ptr %7, align 8
  %19 = getelementptr inbounds nuw %struct._packet_info, ptr %18, i32 0, i32 3
  %20 = load i32, ptr %19, align 4
  %21 = call i32 @erf_source_find_closest(i64 noundef %16, i8 noundef zeroext %17, i32 noundef %20, ptr noundef %15)
  store i32 %21, ptr %14, align 4
  %22 = load i32, ptr %14, align 4
  %23 = icmp ne i32 %22, -1
  br i1 %23, label %24, label %26

24:                                               ; preds = %5
  %25 = load i32, ptr %14, align 4
  store i32 %25, ptr %13, align 4
  br label %28

26:                                               ; preds = %5
  %27 = load i32, ptr %15, align 4
  store i32 %27, ptr %13, align 4
  br label %28

28:                                               ; preds = %26, %24
  %29 = load i32, ptr %13, align 4
  %30 = icmp ne i32 %29, -1
  br i1 %30, label %31, label %44

31:                                               ; preds = %28
  %32 = load ptr, ptr %8, align 8
  %33 = load i32, ptr @hf_erf_source_current, align 4
  %34 = load ptr, ptr %6, align 8
  %35 = load i32, ptr %13, align 4
  %36 = load i64, ptr %9, align 8
  %37 = load i8, ptr %10, align 1
  %38 = zext i8 %37 to i32
  %39 = and i32 %38, 255
  %40 = call ptr (ptr, i32, ptr, i32, i32, i32, ptr, ...) @proto_tree_add_uint_format(ptr noundef %32, i32 noundef %33, ptr noundef %34, i32 noundef 0, i32 noundef 0, i32 noundef %35, ptr noundef @.str.418, i64 noundef %36, i32 noundef %39)
  store ptr %40, ptr %12, align 8
  %41 = load ptr, ptr %12, align 8
  %42 = load i32, ptr @ett_erf_source, align 4
  %43 = call ptr @proto_item_add_subtree(ptr noundef %41, i32 noundef %42)
  store ptr %43, ptr %11, align 8
  br label %53

44:                                               ; preds = %28
  %45 = load ptr, ptr %8, align 8
  %46 = load ptr, ptr %6, align 8
  %47 = load i32, ptr @ett_erf_source, align 4
  %48 = load i64, ptr %9, align 8
  %49 = load i8, ptr %10, align 1
  %50 = zext i8 %49 to i32
  %51 = and i32 %50, 255
  %52 = call ptr (ptr, ptr, i32, i32, i32, ptr, ptr, ...) @proto_tree_add_subtree_format(ptr noundef %45, ptr noundef %46, i32 noundef 0, i32 noundef 0, i32 noundef %47, ptr noundef %12, ptr noundef @.str.418, i64 noundef %48, i32 noundef %51)
  store ptr %52, ptr %11, align 8
  br label %53

53:                                               ; preds = %44, %31
  %54 = load ptr, ptr %12, align 8
  call void @proto_item_set_generated(ptr noundef %54)
  %55 = load ptr, ptr %11, align 8
  %56 = load i32, ptr @hf_erf_hostid, align 4
  %57 = load ptr, ptr %6, align 8
  %58 = load i64, ptr %9, align 8
  %59 = call ptr @proto_tree_add_uint64(ptr noundef %55, i32 noundef %56, ptr noundef %57, i32 noundef 0, i32 noundef 0, i64 noundef %58)
  store ptr %59, ptr %12, align 8
  %60 = load ptr, ptr %12, align 8
  call void @proto_item_set_generated(ptr noundef %60)
  %61 = load ptr, ptr %11, align 8
  %62 = load i32, ptr @hf_erf_sourceid, align 4
  %63 = load ptr, ptr %6, align 8
  %64 = load i8, ptr %10, align 1
  %65 = zext i8 %64 to i32
  %66 = call ptr @proto_tree_add_uint(ptr noundef %61, i32 noundef %62, ptr noundef %63, i32 noundef 0, i32 noundef 0, i32 noundef %65)
  store ptr %66, ptr %12, align 8
  %67 = load ptr, ptr %12, align 8
  call void @proto_item_set_generated(ptr noundef %67)
  %68 = load i32, ptr %15, align 4
  %69 = icmp ne i32 %68, -1
  br i1 %69, label %70, label %81

70:                                               ; preds = %53
  %71 = load ptr, ptr %11, align 8
  %72 = load i32, ptr @hf_erf_source_next, align 4
  %73 = load ptr, ptr %6, align 8
  %74 = load i32, ptr %15, align 4
  %75 = call ptr @proto_tree_add_uint(ptr noundef %71, i32 noundef %72, ptr noundef %73, i32 noundef 0, i32 noundef 0, i32 noundef %74)
  store ptr %75, ptr %12, align 8
  %76 = load ptr, ptr %12, align 8
  call void @proto_item_set_generated(ptr noundef %76)
  %77 = load ptr, ptr %7, align 8
  %78 = getelementptr inbounds nuw %struct._packet_info, ptr %77, i32 0, i32 8
  %79 = load ptr, ptr %78, align 8
  %80 = load i32, ptr %15, align 4
  call void @mark_frame_as_depended_upon(ptr noundef %79, i32 noundef %80)
  br label %81

81:                                               ; preds = %70, %53
  %82 = load i32, ptr %14, align 4
  %83 = icmp ne i32 %82, -1
  br i1 %83, label %84, label %95

84:                                               ; preds = %81
  %85 = load ptr, ptr %11, align 8
  %86 = load i32, ptr @hf_erf_source_prev, align 4
  %87 = load ptr, ptr %6, align 8
  %88 = load i32, ptr %14, align 4
  %89 = call ptr @proto_tree_add_uint(ptr noundef %85, i32 noundef %86, ptr noundef %87, i32 noundef 0, i32 noundef 0, i32 noundef %88)
  store ptr %89, ptr %12, align 8
  %90 = load ptr, ptr %12, align 8
  call void @proto_item_set_generated(ptr noundef %90)
  %91 = load ptr, ptr %7, align 8
  %92 = getelementptr inbounds nuw %struct._packet_info, ptr %91, i32 0, i32 8
  %93 = load ptr, ptr %92, align 8
  %94 = load i32, ptr %14, align 4
  call void @mark_frame_as_depended_upon(ptr noundef %93, i32 noundef %94)
  br label %95

95:                                               ; preds = %84, %81
  call void @llvm.lifetime.end.p0(i64 4, ptr %15) #14
  call void @llvm.lifetime.end.p0(i64 4, ptr %14) #14
  call void @llvm.lifetime.end.p0(i64 4, ptr %13) #14
  call void @llvm.lifetime.end.p0(i64 8, ptr %12) #14
  call void @llvm.lifetime.end.p0(i64 8, ptr %11) #14
  ret void
}