; Function Attrs: null_pointer_is_valid sspstrong uwtable
define internal fastcc void @dissect_host_id_source_id(ptr noundef %0, ptr noundef readonly captures(none) %1, ptr noundef %2, i64 noundef %3, i8 noundef zeroext %4) unnamed_addr #2 {
  %6 = alloca i64, align 8
  %7 = alloca ptr, align 8
  call void @llvm.lifetime.start.p0(i64 8, ptr nonnull %7) #11
  store ptr null, ptr %7, align 8
  %8 = getelementptr inbounds nuw i8, ptr %1, i64 20
  %9 = load i32, ptr %8, align 4
  call void @llvm.lifetime.start.p0(i64 8, ptr nonnull %6) #11
  %10 = shl i64 %3, 16
  %11 = zext i8 %4 to i64
  %12 = or disjoint i64 %10, %11
  store i64 %12, ptr %6, align 8
  %13 = load ptr, ptr @erf_state.0, align 8
  %14 = call ptr @wmem_map_lookup(ptr noundef %13, ptr noundef nonnull %6)
  %.not.i = icmp eq ptr %14, null
  br i1 %.not.i, label %erf_source_find_closest.exit, label %15

15:                                               ; preds = %5
  %16 = load ptr, ptr %14, align 8
  %17 = call ptr @wmem_tree_lookup32_le(ptr noundef %16, i32 noundef %9)
  %.not29.i = icmp eq ptr %17, null
  br i1 %.not29.i, label %31, label %18

18:                                               ; preds = %15
  %19 = call ptr @wmem_list_frame_data(ptr noundef nonnull %17)
  %20 = ptrtoint ptr %19 to i64
  %21 = trunc i64 %20 to i32
  %22 = icmp eq i32 %9, %21
  br i1 %22, label %23, label %29

23:                                               ; preds = %18
  %24 = call ptr @wmem_list_frame_prev(ptr noundef nonnull %17)
  %.not31.i = icmp eq ptr %24, null
  br i1 %.not31.i, label %29, label %25

25:                                               ; preds = %23
  %26 = call ptr @wmem_list_frame_data(ptr noundef nonnull %24)
  %27 = ptrtoint ptr %26 to i64
  %28 = trunc i64 %27 to i32
  br label %29

29:                                               ; preds = %25, %23, %18
  %.1.i = phi i32 [ %21, %18 ], [ %28, %25 ], [ -1, %23 ]
  %30 = call ptr @wmem_list_frame_next(ptr noundef nonnull %17)
  %.not32.i = icmp eq ptr %30, null
  br i1 %.not32.i, label %erf_source_find_closest.exit, label %.sink.split.i

31:                                               ; preds = %15
  %32 = getelementptr inbounds nuw i8, ptr %14, i64 8
  %33 = load ptr, ptr %32, align 8
  %34 = call ptr @wmem_list_head(ptr noundef %33)
  %.not30.i = icmp eq ptr %34, null
  br i1 %.not30.i, label %erf_source_find_closest.exit, label %.sink.split.i

.sink.split.i:                                    ; preds = %31, %29
  %.sink.i = phi ptr [ %30, %29 ], [ %34, %31 ]
  %.021.ph.i = phi i32 [ %.1.i, %29 ], [ -1, %31 ]
  %35 = call ptr @wmem_list_frame_data(ptr noundef nonnull %.sink.i)
  %36 = ptrtoint ptr %35 to i64
  %37 = trunc i64 %36 to i32
  br label %erf_source_find_closest.exit

erf_source_find_closest.exit:                     ; preds = %5, %29, %31, %.sink.split.i
  %.021.i = phi i32 [ -1, %5 ], [ %.1.i, %29 ], [ -1, %31 ], [ %.021.ph.i, %.sink.split.i ]
  %.0.i = phi i32 [ -1, %5 ], [ -1, %29 ], [ -1, %31 ], [ %37, %.sink.split.i ]
  call void @llvm.lifetime.end.p0(i64 8, ptr nonnull %6) #11
  %.not = icmp eq i32 %.021.i, -1
  %.0 = select i1 %.not, i32 %.0.i, i32 %.021.i
  %.not32 = icmp eq i32 %.0, -1
  %38 = zext i8 %4 to i32
  br i1 %.not32, label %44, label %39

39:                                               ; preds = %erf_source_find_closest.exit
  %40 = load i32, ptr @hf_erf_source_current, align 4
  %41 = call ptr (ptr, i32, ptr, i32, i32, i32, ptr, ...) @proto_tree_add_uint_format(ptr noundef %2, i32 noundef %40, ptr noundef %0, i32 noundef 0, i32 noundef 0, i32 noundef %.0, ptr noundef nonnull @.str.418, i64 noundef %3, i32 noundef %38)
  store ptr %41, ptr %7, align 8
  %42 = load i32, ptr @ett_erf_source, align 4
  %43 = call ptr @proto_item_add_subtree(ptr noundef %41, i32 noundef %42)
  br label %47

44:                                               ; preds = %erf_source_find_closest.exit
  %45 = load i32, ptr @ett_erf_source, align 4
  %46 = call ptr (ptr, ptr, i32, i32, i32, ptr, ptr, ...) @proto_tree_add_subtree_format(ptr noundef %2, ptr noundef %0, i32 noundef 0, i32 noundef 0, i32 noundef %45, ptr noundef nonnull %7, ptr noundef nonnull @.str.418, i64 noundef %3, i32 noundef %38)
  %.pre = load ptr, ptr %7, align 8
  br label %47

47:                                               ; preds = %44, %39
  %48 = phi ptr [ %41, %39 ], [ %.pre, %44 ]
  %.029 = phi ptr [ %43, %39 ], [ %46, %44 ]
  %.not.i34 = icmp eq ptr %48, null
  br i1 %.not.i34, label %proto_item_set_generated.exit, label %49

49:                                               ; preds = %47
  %50 = getelementptr inbounds nuw i8, ptr %48, i64 40
  %51 = load ptr, ptr %50, align 8
  %.not5.i = icmp eq ptr %51, null
  br i1 %.not5.i, label %proto_item_set_generated.exit, label %52

52:                                               ; preds = %49
  %53 = getelementptr inbounds nuw i8, ptr %51, i64 28
  %54 = load i32, ptr %53, align 4
  %55 = or i32 %54, 2
  store i32 %55, ptr %53, align 4
  br label %proto_item_set_generated.exit

proto_item_set_generated.exit:                    ; preds = %47, %49, %52
  %56 = load i32, ptr @hf_erf_hostid, align 4
  %57 = call ptr @proto_tree_add_uint64(ptr noundef %.029, i32 noundef %56, ptr noundef %0, i32 noundef 0, i32 noundef 0, i64 noundef %3)
  store ptr %57, ptr %7, align 8
  %.not.i35 = icmp eq ptr %57, null
  br i1 %.not.i35, label %proto_item_set_generated.exit37, label %58

58:                                               ; preds = %proto_item_set_generated.exit
  %59 = getelementptr inbounds nuw i8, ptr %57, i64 40
  %60 = load ptr, ptr %59, align 8
  %.not5.i36 = icmp eq ptr %60, null
  br i1 %.not5.i36, label %proto_item_set_generated.exit37, label %61

61:                                               ; preds = %58
  %62 = getelementptr inbounds nuw i8, ptr %60, i64 28
  %63 = load i32, ptr %62, align 4
  %64 = or i32 %63, 2
  store i32 %64, ptr %62, align 4
  br label %proto_item_set_generated.exit37

proto_item_set_generated.exit37:                  ; preds = %proto_item_set_generated.exit, %58, %61
  %65 = load i32, ptr @hf_erf_sourceid, align 4
  %66 = zext i8 %4 to i32
  %67 = call ptr @proto_tree_add_uint(ptr noundef %.029, i32 noundef %65, ptr noundef %0, i32 noundef 0, i32 noundef 0, i32 noundef %66)
  store ptr %67, ptr %7, align 8
  %.not.i38 = icmp eq ptr %67, null
  br i1 %.not.i38, label %proto_item_set_generated.exit40, label %68

68:                                               ; preds = %proto_item_set_generated.exit37
  %69 = getelementptr inbounds nuw i8, ptr %67, i64 40
  %70 = load ptr, ptr %69, align 8
  %.not5.i39 = icmp eq ptr %70, null
  br i1 %.not5.i39, label %proto_item_set_generated.exit40, label %71

71:                                               ; preds = %68
  %72 = getelementptr inbounds nuw i8, ptr %70, i64 28
  %73 = load i32, ptr %72, align 4
  %74 = or i32 %73, 2
  store i32 %74, ptr %72, align 4
  br label %proto_item_set_generated.exit40

proto_item_set_generated.exit40:                  ; preds = %proto_item_set_generated.exit37, %68, %71
  %.not33 = icmp eq i32 %.0.i, -1
  br i1 %.not33, label %87, label %75

75:                                               ; preds = %proto_item_set_generated.exit40
  %76 = load i32, ptr @hf_erf_source_next, align 4
  %77 = call ptr @proto_tree_add_uint(ptr noundef %.029, i32 noundef %76, ptr noundef %0, i32 noundef 0, i32 noundef 0, i32 noundef %.0.i)
  store ptr %77, ptr %7, align 8
  %.not.i41 = icmp eq ptr %77, null
  br i1 %.not.i41, label %proto_item_set_generated.exit43, label %78

78:                                               ; preds = %75
  %79 = getelementptr inbounds nuw i8, ptr %77, i64 40
  %80 = load ptr, ptr %79, align 8
  %.not5.i42 = icmp eq ptr %80, null
  br i1 %.not5.i42, label %proto_item_set_generated.exit43, label %81

81:                                               ; preds = %78
  %82 = getelementptr inbounds nuw i8, ptr %80, i64 28
  %83 = load i32, ptr %82, align 4
  %84 = or i32 %83, 2
  store i32 %84, ptr %82, align 4
  br label %proto_item_set_generated.exit43

proto_item_set_generated.exit43:                  ; preds = %75, %78, %81
  %85 = getelementptr inbounds nuw i8, ptr %1, i64 80
  %86 = load ptr, ptr %85, align 8
  call void @mark_frame_as_depended_upon(ptr noundef %86, i32 noundef %.0.i)
  br label %87

87:                                               ; preds = %proto_item_set_generated.exit43, %proto_item_set_generated.exit40
  br i1 %.not, label %100, label %88

88:                                               ; preds = %87
  %89 = load i32, ptr @hf_erf_source_prev, align 4
  %90 = call ptr @proto_tree_add_uint(ptr noundef %.029, i32 noundef %89, ptr noundef %0, i32 noundef 0, i32 noundef 0, i32 noundef %.021.i)
  store ptr %90, ptr %7, align 8
  %.not.i44 = icmp eq ptr %90, null
  br i1 %.not.i44, label %proto_item_set_generated.exit46, label %91

91:                                               ; preds = %88
  %92 = getelementptr inbounds nuw i8, ptr %90, i64 40
  %93 = load ptr, ptr %92, align 8
  %.not5.i45 = icmp eq ptr %93, null
  br i1 %.not5.i45, label %proto_item_set_generated.exit46, label %94

94:                                               ; preds = %91
  %95 = getelementptr inbounds nuw i8, ptr %93, i64 28
  %96 = load i32, ptr %95, align 4
  %97 = or i32 %96, 2
  store i32 %97, ptr %95, align 4
  br label %proto_item_set_generated.exit46

proto_item_set_generated.exit46:                  ; preds = %88, %91, %94
  %98 = getelementptr inbounds nuw i8, ptr %1, i64 80
  %99 = load ptr, ptr %98, align 8
  call void @mark_frame_as_depended_upon(ptr noundef %99, i32 noundef %.021.i)
  br label %100

100:                                              ; preds = %proto_item_set_generated.exit46, %87
  call void @llvm.lifetime.end.p0(i64 8, ptr nonnull %7) #11
  ret void
}